target datalayout = "e-m:e-p270:32:32-p271:32:32-p272:64:64-i64:64-i128:128-f80:128-n8:16:32:64-S128"
target triple = "x86_64-pc-linux-gnu"

%struct.loopargs_st = type { ptr, ptr, ptr, ptr, ptr, ptr, ptr, [16 x i8], i64, i64, i64, [7 x ptr], [7 x ptr], [7 x ptr], [7 x ptr], [2 x ptr], [2 x ptr], [22 x ptr], [22 x ptr], [24 x ptr], [2 x ptr], [2 x ptr], [1 x ptr], [1 x ptr], [1 x ptr], ptr, ptr, [24 x i64], [5 x ptr], ptr, ptr, ptr, ptr, [111 x ptr], [111 x ptr], [111 x ptr], [111 x i64], [111 x i64], [111 x ptr], [111 x ptr], [111 x ptr], [111 x ptr], [111 x ptr], [111 x ptr], [111 x i64], [111 x i64], [111 x ptr] }

@bio_err = external global ptr, align 8
@testmode = internal global i32 0, align 4
@testnum = internal global i32 0, align 4
@testmoderesult = internal global i32 0, align 4
@run = internal global i32 0, align 4
@.str.457 = private unnamed_addr constant [22 x i8] c"ECDSA verify failure\0A\00", align 1

; Function Attrs: nounwind uwtable
define internal void @dofail() #0 {
  %1 = load ptr, ptr @bio_err, align 8, !tbaa !53
  call void @ERR_print_errors(ptr noundef %1)
  store i32 1, ptr @testmoderesult, align 4, !tbaa !4
  ret void
}

; Function Attrs: nounwind uwtable
define internal i32 @ECDSA_verify_loop(ptr noundef %0) #0 {
  %2 = alloca ptr, align 8
  %3 = alloca ptr, align 8
  %4 = alloca ptr, align 8
  %5 = alloca ptr, align 8
  %6 = alloca i64, align 8
  %7 = alloca ptr, align 8
  %8 = alloca i32, align 4
  %9 = alloca i32, align 4
  store ptr %0, ptr %2, align 8, !tbaa !115
  call void @llvm.lifetime.start.p0(i64 8, ptr %3) #11
  %10 = load ptr, ptr %2, align 8, !tbaa !115
  %11 = load ptr, ptr %10, align 8, !tbaa !37
  store ptr %11, ptr %3, align 8, !tbaa !37
  call void @llvm.lifetime.start.p0(i64 8, ptr %4) #11
  %12 = load ptr, ptr %3, align 8, !tbaa !37
  %13 = getelementptr inbounds nuw %struct.loopargs_st, ptr %12, i32 0, i32 2
  %14 = load ptr, ptr %13, align 8, !tbaa !92
  store ptr %14, ptr %4, align 8, !tbaa !39
  call void @llvm.lifetime.start.p0(i64 8, ptr %5) #11
  %15 = load ptr, ptr %3, align 8, !tbaa !37
  %16 = getelementptr inbounds nuw %struct.loopargs_st, ptr %15, i32 0, i32 3
  %17 = load ptr, ptr %16, align 8, !tbaa !93
  store ptr %17, ptr %5, align 8, !tbaa !39
  call void @llvm.lifetime.start.p0(i64 8, ptr %6) #11
  %18 = load ptr, ptr %3, align 8, !tbaa !37
  %19 = getelementptr inbounds nuw %struct.loopargs_st, ptr %18, i32 0, i32 9
  %20 = load i64, ptr %19, align 8, !tbaa !95
  store i64 %20, ptr %6, align 8, !tbaa !50
  call void @llvm.lifetime.start.p0(i64 8, ptr %7) #11
  %21 = load ptr, ptr %3, align 8, !tbaa !37
  %22 = getelementptr inbounds nuw %struct.loopargs_st, ptr %21, i32 0, i32 18
  %23 = getelementptr inbounds [22 x ptr], ptr %22, i64 0, i64 0
  store ptr %23, ptr %7, align 8, !tbaa !272
  call void @llvm.lifetime.start.p0(i64 4, ptr %8) #11
  call void @llvm.lifetime.start.p0(i64 4, ptr %9) #11
  store i32 0, ptr %9, align 4, !tbaa !4
  br label %24

24:                                               ; preds = %51, %1
  %25 = load volatile i32, ptr @run, align 4, !tbaa !4
  %26 = icmp ne i32 %25, 0
  br i1 %26, label %27, label %33

27:                                               ; preds = %24
  %28 = load i32, ptr %9, align 4, !tbaa !4
  %29 = load i32, ptr @testmode, align 4, !tbaa !4
  %30 = icmp ne i32 %29, 0
  %31 = select i1 %30, i32 1, i32 2147483647
  %32 = icmp slt i32 %28, %31
  br label %33

33:                                               ; preds = %27, %24
  %34 = phi i1 [ false, %24 ], [ %32, %27 ]
  br i1 %34, label %35, label %54

35:                                               ; preds = %33
  %36 = load ptr, ptr %7, align 8, !tbaa !272
  %37 = load i32, ptr @testnum, align 4, !tbaa !4
  %38 = zext i32 %37 to i64
  %39 = getelementptr inbounds nuw ptr, ptr %36, i64 %38
  %40 = load ptr, ptr %39, align 8, !tbaa !27
  %41 = load ptr, ptr %5, align 8, !tbaa !39
  %42 = load i64, ptr %6, align 8, !tbaa !50
  %43 = load ptr, ptr %4, align 8, !tbaa !39
  %44 = call i32 @EVP_PKEY_verify(ptr noundef %40, ptr noundef %41, i64 noundef %42, ptr noundef %43, i64 noundef 20)
  store i32 %44, ptr %8, align 4, !tbaa !4
  %45 = load i32, ptr %8, align 4, !tbaa !4
  %46 = icmp sle i32 %45, 0
  br i1 %46, label %47, label %50

47:                                               ; preds = %35
  %48 = load ptr, ptr @bio_err, align 8, !tbaa !53
  %49 = call i32 (ptr, ptr, ...) @BIO_printf(ptr noundef %48, ptr noundef @.str.457)
  call void @dofail()
  store i32 -1, ptr %9, align 4, !tbaa !4
  br label %54

50:                                               ; preds = %35
  br label %51

51:                                               ; preds = %50
  %52 = load i32, ptr %9, align 4, !tbaa !4
  %53 = add nsw i32 %52, 1
  store i32 %53, ptr %9, align 4, !tbaa !4
  br label %24, !llvm.loop !283

54:                                               ; preds = %47, %33
  %55 = load i32, ptr %9, align 4, !tbaa !4
  call void @llvm.lifetime.end.p0(i64 4, ptr %9) #11
  call void @llvm.lifetime.end.p0(i64 4, ptr %8) #11
  call void @llvm.lifetime.end.p0(i64 8, ptr %7) #11
  call void @llvm.lifetime.end.p0(i64 8, ptr %6) #11
  call void @llvm.lifetime.end.p0(i64 8, ptr %5) #11
  call void @llvm.lifetime.end.p0(i64 8, ptr %4) #11
  call void @llvm.lifetime.end.p0(i64 8, ptr %3) #11
  ret i32 %55
}